Certificate:
    Data:
        Version: 3 (0x2)
        Serial Number: 9 (0x9)
    Signature Algorithm: sha1WithRSAEncryption
        Issuer: C=US, ST=MA, L=Lowell, O=University of Massachusetts Lowell, OU=RoverHawks, CN=Eric McCann/name=Eric McCann/emailAddress=emccann@cs.uml.edu
        Validity
            Not Before: Mar 22 16:27:10 2013 GMT
            Not After : Mar 20 16:27:10 2023 GMT
        Subject: C=US, ST=MA, L=Lowell, O=University of Massachusetts Lowell, OU=RoverHawks, CN=class/name=Eric McCann/emailAddress=emccann@cs.uml.edu
        Subject Public Key Info:
            Public Key Algorithm: rsaEncryption
                Public-Key: (1024 bit)
                Modulus:
                    00:f1:dc:39:73:77:f2:18:bb:51:e6:e4:a2:47:6b:
                    50:e0:9b:a3:4c:fd:e0:de:df:f8:42:f0:ca:e8:af:
                    6c:43:55:67:9c:18:d8:57:4a:19:17:36:de:ee:80:
                    83:15:41:bb:9e:ef:74:69:18:76:6d:e5:54:4a:44:
                    80:30:79:70:29:b8:22:98:e0:f8:fb:21:28:d8:17:
                    d4:6e:cc:08:13:0f:36:08:d8:f1:2a:0d:16:2b:92:
                    46:47:b6:de:13:b9:41:36:3b:30:1a:a0:53:11:78:
                    2f:e2:8b:ed:34:17:a8:8c:ce:d4:d4:37:19:f9:26:
                    4c:bb:7b:d6:66:34:ed:d5:bd
                Exponent: 65537 (0x10001)
        X509v3 extensions:
            X509v3 Basic Constraints: 
                CA:FALSE
            Netscape Comment: 
                Easy-RSA Generated Certificate
            X509v3 Subject Key Identifier: 
                7A:0D:35:2F:DE:5F:5A:8F:36:A6:AE:B2:3D:FF:41:02:1A:4D:A0:9C
            X509v3 Authority Key Identifier: 
                keyid:16:06:F7:6B:04:21:04:9E:43:D1:D1:AC:D7:60:07:13:56:85:FB:22
                DirName:/C=US/ST=MA/L=Lowell/O=University of Massachusetts Lowell/OU=RoverHawks/CN=Eric McCann/name=Eric McCann/emailAddress=emccann@cs.uml.edu
                serial:9E:C2:04:61:62:AD:88:65

            X509v3 Extended Key Usage: 
                TLS Web Client Authentication
            X509v3 Key Usage: 
                Digital Signature
    Signature Algorithm: sha1WithRSAEncryption
         8b:2d:8a:a3:c5:77:5f:59:2f:0a:4d:c6:8d:d7:88:ad:a2:9d:
         d6:95:b8:e3:b4:ef:0a:47:f8:94:7a:c2:2d:f9:c3:e8:7f:4e:
         cf:08:5b:51:37:44:ae:22:8e:94:e5:a4:ed:a9:da:e6:9c:a3:
         13:4a:b3:b2:53:64:94:01:ce:bc:70:f3:db:c6:dc:91:13:cf:
         9b:ba:0a:9d:cf:a8:e2:56:49:49:a2:0e:7e:ff:d0:bb:8a:a1:
         5e:f4:c9:0a:f2:c1:1c:0a:8e:d5:6c:00:82:16:d0:b9:c7:d9:
         eb:04:6e:7a:fd:38:b7:5b:b6:e9:c6:97:e9:dd:34:d4:46:6a:
         b4:b5
-----BEGIN CERTIFICATE-----
MIIEXzCCA8igAwIBAgIBCTANBgkqhkiG9w0BAQUFADCBvDELMAkGA1UEBhMCVVMx
CzAJBgNVBAgTAk1BMQ8wDQYDVQQHEwZMb3dlbGwxKzApBgNVBAoTIlVuaXZlcnNp
dHkgb2YgTWFzc2FjaHVzZXR0cyBMb3dlbGwxEzARBgNVBAsTClJvdmVySGF3a3Mx
FDASBgNVBAMTC0VyaWMgTWNDYW5uMRQwEgYDVQQpEwtFcmljIE1jQ2FubjEhMB8G
CSqGSIb3DQEJARYSZW1jY2FubkBjcy51bWwuZWR1MB4XDTEzMDMyMjE2MjcxMFoX
DTIzMDMyMDE2MjcxMFowgbYxCzAJBgNVBAYTAlVTMQswCQYDVQQIEwJNQTEPMA0G
A1UEBxMGTG93ZWxsMSswKQYDVQQKEyJVbml2ZXJzaXR5IG9mIE1hc3NhY2h1c2V0
dHMgTG93ZWxsMRMwEQYDVQQLEwpSb3Zlckhhd2tzMQ4wDAYDVQQDEwVjbGFzczEU
MBIGA1UEKRMLRXJpYyBNY0Nhbm4xITAfBgkqhkiG9w0BCQEWEmVtY2Nhbm5AY3Mu
dW1sLmVkdTCBnzANBgkqhkiG9w0BAQEFAAOBjQAwgYkCgYEA8dw5c3fyGLtR5uSi
R2tQ4JujTP3g3t/4QvDK6K9sQ1VnnBjYV0oZFzbe7oCDFUG7nu90aRh2beVUSkSA
MHlwKbgimOD4+yEo2BfUbswIEw82CNjxKg0WK5JGR7beE7lBNjswGqBTEXgv4ovt
NBeojM7U1DcZ+SZMu3vWZjTt1b0CAwEAAaOCAXMwggFvMAkGA1UdEwQCMAAwLQYJ
YIZIAYb4QgENBCAWHkVhc3ktUlNBIEdlbmVyYXRlZCBDZXJ0aWZpY2F0ZTAdBgNV
HQ4EFgQUeg01L95fWo82pq6yPf9BAhpNoJwwgfEGA1UdIwSB6TCB5oAUFgb3awQh
BJ5D0dGs12AHE1aF+yKhgcKkgb8wgbwxCzAJBgNVBAYTAlVTMQswCQYDVQQIEwJN
QTEPMA0GA1UEBxMGTG93ZWxsMSswKQYDVQQKEyJVbml2ZXJzaXR5IG9mIE1hc3Nh
Y2h1c2V0dHMgTG93ZWxsMRMwEQYDVQQLEwpSb3Zlckhhd2tzMRQwEgYDVQQDEwtF
cmljIE1jQ2FubjEUMBIGA1UEKRMLRXJpYyBNY0Nhbm4xITAfBgkqhkiG9w0BCQEW
EmVtY2Nhbm5AY3MudW1sLmVkdYIJAJ7CBGFirYhlMBMGA1UdJQQMMAoGCCsGAQUF
BwMCMAsGA1UdDwQEAwIHgDANBgkqhkiG9w0BAQUFAAOBgQCLLYqjxXdfWS8KTcaN
14itop3WlbjjtO8KR/iUesIt+cPof07PCFtRN0SuIo6U5aTtqdrmnKMTSrOyU2SU
Ac68cPPbxtyRE8+bugqdz6jiVklJog5+/9C7iqFe9MkK8sEcCo7VbACCFtC5x9nr
BG56/Ti3W7bpxpfp3TTURmq0tQ==
-----END CERTIFICATE-----
